target datalayout = "e-m:e-p270:32:32-p271:32:32-p272:64:64-i64:64-i128:128-f80:128-n8:16:32:64-S128"
target triple = "x86_64-pc-linux-gnu"

%struct._object = type { %union.anon, ptr }
%union.anon = type { i64 }
%struct.PyMutex = type { i8 }
%struct.EVPobject = type { %struct._object, ptr, i8, %struct.PyMutex }

@PyExc_ValueError = external global ptr, align 8

; Function Attrs: inlinehint nounwind uwtable
define internal i32 @_Py_atomic_compare_exchange_uint8(ptr noundef %0, ptr noundef %1, i8 noundef zeroext %2) #4 {
  %4 = alloca ptr, align 8
  %5 = alloca ptr, align 8
  %6 = alloca i8, align 1
  %7 = alloca i8, align 1
  %8 = alloca i8, align 1
  store ptr %0, ptr %4, align 8, !tbaa !21
  store ptr %1, ptr %5, align 8, !tbaa !21
  store i8 %2, ptr %6, align 1, !tbaa !28
  %9 = load ptr, ptr %4, align 8, !tbaa !21
  %10 = load ptr, ptr %5, align 8, !tbaa !21
  %11 = load i8, ptr %6, align 1, !tbaa !28
  store i8 %11, ptr %7, align 1, !tbaa !28
  %12 = load i8, ptr %10, align 1
  %13 = load i8, ptr %7, align 1
  %14 = cmpxchg ptr %9, i8 %12, i8 %13 seq_cst seq_cst, align 1
  %15 = extractvalue { i8, i1 } %14, 0
  %16 = extractvalue { i8, i1 } %14, 1
  br i1 %16, label %18, label %17

17:                                               ; preds = %3
  store i8 %15, ptr %10, align 1
  br label %18

18:                                               ; preds = %17, %3
  %19 = zext i1 %16 to i8
  store i8 %19, ptr %8, align 1, !tbaa !53
  %20 = load i8, ptr %8, align 1, !tbaa !53, !range !38, !noundef !39
  %21 = trunc i8 %20 to i1
  %22 = zext i1 %21 to i32
  ret i32 %22
}

; Function Attrs: inlinehint nounwind uwtable
define internal void @_PyMutex_Unlock(ptr noundef %0) #4 {
  %2 = alloca ptr, align 8
  %3 = alloca i8, align 1
  store ptr %0, ptr %2, align 8, !tbaa !51
  call void @llvm.lifetime.start.p0(i64 1, ptr %3) #9
  store i8 1, ptr %3, align 1, !tbaa !28
  %4 = load ptr, ptr %2, align 8, !tbaa !51
  %5 = getelementptr inbounds nuw %struct.PyMutex, ptr %4, i32 0, i32 0
  %6 = call i32 @_Py_atomic_compare_exchange_uint8(ptr noundef %5, ptr noundef %3, i8 noundef zeroext 0)
  %7 = icmp ne i32 %6, 0
  br i1 %7, label %10, label %8

8:                                                ; preds = %1
  %9 = load ptr, ptr %2, align 8, !tbaa !51
  call void @PyMutex_Unlock(ptr noundef %9)
  br label %10

10:                                               ; preds = %8, %1
  call void @llvm.lifetime.end.p0(i64 1, ptr %3) #9
  ret void
}

; Function Attrs: inlinehint nounwind uwtable
define internal void @_PyMutex_Lock(ptr noundef %0) #4 {
  %2 = alloca ptr, align 8
  %3 = alloca i8, align 1
  store ptr %0, ptr %2, align 8, !tbaa !51
  call void @llvm.lifetime.start.p0(i64 1, ptr %3) #9
  store i8 0, ptr %3, align 1, !tbaa !28
  %4 = load ptr, ptr %2, align 8, !tbaa !51
  %5 = getelementptr inbounds nuw %struct.PyMutex, ptr %4, i32 0, i32 0
  %6 = call i32 @_Py_atomic_compare_exchange_uint8(ptr noundef %5, ptr noundef %3, i8 noundef zeroext 1)
  %7 = icmp ne i32 %6, 0
  br i1 %7, label %10, label %8

8:                                                ; preds = %1
  %9 = load ptr, ptr %2, align 8, !tbaa !51
  call void @PyMutex_Lock(ptr noundef %9)
  br label %10

10:                                               ; preds = %8, %1
  call void @llvm.lifetime.end.p0(i64 1, ptr %3) #9
  ret void
}

; Function Attrs: nounwind uwtable
define internal i32 @locked_EVP_MD_CTX_copy(ptr noundef %0, ptr noundef %1) #0 {
  %3 = alloca ptr, align 8
  %4 = alloca ptr, align 8
  %5 = alloca i32, align 4
  store ptr %0, ptr %3, align 8, !tbaa !98
  store ptr %1, ptr %4, align 8, !tbaa !3
  call void @llvm.lifetime.start.p0(i64 4, ptr %5) #9
  %6 = load ptr, ptr %4, align 8, !tbaa !3
  %7 = getelementptr inbounds nuw %struct.EVPobject, ptr %6, i32 0, i32 2
  %8 = load i8, ptr %7, align 8, !tbaa !75, !range !38, !noundef !39
  %9 = trunc i8 %8 to i1
  br i1 %9, label %10, label %13

10:                                               ; preds = %2
  %11 = load ptr, ptr %4, align 8, !tbaa !3
  %12 = getelementptr inbounds nuw %struct.EVPobject, ptr %11, i32 0, i32 3
  call void @_PyMutex_Lock(ptr noundef %12)
  br label %13

13:                                               ; preds = %10, %2
  %14 = load ptr, ptr %3, align 8, !tbaa !98
  %15 = load ptr, ptr %4, align 8, !tbaa !3
  %16 = getelementptr inbounds nuw %struct.EVPobject, ptr %15, i32 0, i32 1
  %17 = load ptr, ptr %16, align 8, !tbaa !69
  %18 = call i32 @EVP_MD_CTX_copy(ptr noundef %14, ptr noundef %17)
  store i32 %18, ptr %5, align 4, !tbaa !19
  %19 = load ptr, ptr %4, align 8, !tbaa !3
  %20 = getelementptr inbounds nuw %struct.EVPobject, ptr %19, i32 0, i32 2
  %21 = load i8, ptr %20, align 8, !tbaa !75, !range !38, !noundef !39
  %22 = trunc i8 %21 to i1
  br i1 %22, label %23, label %26

23:                                               ; preds = %13
  %24 = load ptr, ptr %4, align 8, !tbaa !3
  %25 = getelementptr inbounds nuw %struct.EVPobject, ptr %24, i32 0, i32 3
  call void @_PyMutex_Unlock(ptr noundef %25)
  br label %26

26:                                               ; preds = %23, %13
  %27 = load i32, ptr %5, align 4, !tbaa !19
  call void @llvm.lifetime.end.p0(i64 4, ptr %5) #9
  ret i32 %27
}

; Function Attrs: nounwind uwtable
define internal ptr @EVP_digest_impl(ptr noundef %0) #0 {
  %2 = alloca ptr, align 8
  %3 = alloca ptr, align 8
  %4 = alloca [64 x i8], align 16
  %5 = alloca ptr, align 8
  %6 = alloca ptr, align 8
  %7 = alloca i32, align 4
  %8 = alloca i32, align 4
  store ptr %0, ptr %3, align 8, !tbaa !3
  call void @llvm.lifetime.start.p0(i64 64, ptr %4) #9
  call void @llvm.lifetime.start.p0(i64 8, ptr %5) #9
  call void @llvm.lifetime.start.p0(i64 8, ptr %6) #9
  call void @llvm.lifetime.start.p0(i64 4, ptr %7) #9
  %9 = call ptr @EVP_MD_CTX_new()
  store ptr %9, ptr %5, align 8, !tbaa !98
  %10 = load ptr, ptr %5, align 8, !tbaa !98
  %11 = icmp eq ptr %10, null
  br i1 %11, label %12, label %14

12:                                               ; preds = %1
  %13 = call ptr @PyErr_NoMemory()
  store ptr null, ptr %2, align 8
  store i32 1, ptr %8, align 4
  br label %40

14:                                               ; preds = %1
  %15 = load ptr, ptr %5, align 8, !tbaa !98
  %16 = load ptr, ptr %3, align 8, !tbaa !3
  %17 = call i32 @locked_EVP_MD_CTX_copy(ptr noundef %15, ptr noundef %16)
  %18 = icmp ne i32 %17, 0
  br i1 %18, label %22, label %19

19:                                               ; preds = %14
  %20 = load ptr, ptr @PyExc_ValueError, align 8, !tbaa !14
  %21 = call ptr (ptr, ptr, ...) @_setException(ptr noundef %20, ptr noundef null)
  store ptr %21, ptr %2, align 8
  store i32 1, ptr %8, align 4
  br label %40

22:                                               ; preds = %14
  %23 = load ptr, ptr %5, align 8, !tbaa !98
  %24 = call ptr @EVP_MD_CTX_get0_md(ptr noundef %23)
  %25 = call i32 @EVP_MD_get_size(ptr noundef %24)
  store i32 %25, ptr %7, align 4, !tbaa !19
  %26 = load ptr, ptr %5, align 8, !tbaa !98
  %27 = getelementptr inbounds [64 x i8], ptr %4, i64 0, i64 0
  %28 = call i32 @EVP_DigestFinal(ptr noundef %26, ptr noundef %27, ptr noundef null)
  %29 = icmp ne i32 %28, 0
  br i1 %29, label %33, label %30

30:                                               ; preds = %22
  %31 = load ptr, ptr @PyExc_ValueError, align 8, !tbaa !14
  %32 = call ptr (ptr, ptr, ...) @_setException(ptr noundef %31, ptr noundef null)
  store ptr null, ptr %2, align 8
  store i32 1, ptr %8, align 4
  br label %40

33:                                               ; preds = %22
  %34 = getelementptr inbounds [64 x i8], ptr %4, i64 0, i64 0
  %35 = load i32, ptr %7, align 4, !tbaa !19
  %36 = zext i32 %35 to i64
  %37 = call ptr @PyBytes_FromStringAndSize(ptr noundef %34, i64 noundef %36)
  store ptr %37, ptr %6, align 8, !tbaa !14
  %38 = load ptr, ptr %5, align 8, !tbaa !98
  call void @EVP_MD_CTX_free(ptr noundef %38)
  %39 = load ptr, ptr %6, align 8, !tbaa !14
  store ptr %39, ptr %2, align 8
  store i32 1, ptr %8, align 4
  br label %40

40:                                               ; preds = %33, %30, %19, %12
  call void @llvm.lifetime.end.p0(i64 4, ptr %7) #9
  call void @llvm.lifetime.end.p0(i64 8, ptr %6) #9
  call void @llvm.lifetime.end.p0(i64 8, ptr %5) #9
  call void @llvm.lifetime.end.p0(i64 64, ptr %4) #9
  %41 = load ptr, ptr %2, align 8
  ret ptr %41
}

; Function Attrs: nounwind uwtable
define internal ptr @EVP_digest(ptr noundef %0, ptr noundef %1) #0 {
  %3 = alloca ptr, align 8
  %4 = alloca ptr, align 8
  store ptr %0, ptr %3, align 8, !tbaa !14
  store ptr %1, ptr %4, align 8, !tbaa !14
  %5 = load ptr, ptr %3, align 8, !tbaa !14
  %6 = call ptr @EVP_digest_impl(ptr noundef %5)
  ret ptr %6
}